; ModuleID = '37/36.c'
source_filename = "37/36.c"
target datalayout = "e-m:e-p270:32:32-p271:32:32-p272:64:64-i64:64-f80:128-n8:16:32:64-S128"
target triple = "x86_64-pc-linux-gnu"

@.str = private unnamed_addr constant [3 x i8] c"%d\00", align 1
@.str.1 = private unnamed_addr constant [4 x i8] c"%c\0A\00", align 1
@.str.2 = private unnamed_addr constant [4 x i8] c"no\0A\00", align 1

; Function Attrs: noinline nounwind uwtable
define dso_local i32 @main() #0 {
  %1 = alloca i32, align 4
  %2 = alloca i32, align 4
  %3 = alloca i32, align 4
  %4 = alloca i32, align 4
  %5 = alloca i32, align 4
  %6 = alloca i32, align 4
  %7 = alloca [2 x [30 x i32]], align 16
  %8 = alloca i32, align 4
  %9 = alloca i32, align 4
  %10 = alloca i32, align 4
  %11 = alloca i32, align 4
  %12 = alloca i32, align 4
  store i32 0, i32* %1, align 4
  %13 = call i32 (i8*, ...) @__isoc99_scanf(i8* getelementptr inbounds ([3 x i8], [3 x i8]* @.str, i64 0, i64 0), i32* %9)
  %14 = call i32 @getchar()
  store i32 %14, i32* %8, align 4
  store i32 1, i32* %2, align 4
  br label %15

15:                                               ; preds = %103, %0
  %16 = load i32, i32* %2, align 4
  %17 = load i32, i32* %9, align 4
  %18 = icmp sle i32 %16, %17
  br i1 %18, label %19, label %106

19:                                               ; preds = %15
  store i32 0, i32* %4, align 4
  br label %20

20:                                               ; preds = %38, %19
  %21 = load i32, i32* %4, align 4
  %22 = icmp sle i32 %21, 25
  br i1 %22, label %23, label %41

23:                                               ; preds = %20
  store i32 0, i32* %5, align 4
  br label %24

24:                                               ; preds = %34, %23
  %25 = load i32, i32* %5, align 4
  %26 = icmp sle i32 %25, 1
  br i1 %26, label %27, label %37

27:                                               ; preds = %24
  %28 = load i32, i32* %5, align 4
  %29 = sext i32 %28 to i64
  %30 = getelementptr inbounds [2 x [30 x i32]], [2 x [30 x i32]]* %7, i64 0, i64 %29
  %31 = load i32, i32* %4, align 4
  %32 = sext i32 %31 to i64
  %33 = getelementptr inbounds [30 x i32], [30 x i32]* %30, i64 0, i64 %32
  store i32 0, i32* %33, align 4
  br label %34

34:                                               ; preds = %27
  %35 = load i32, i32* %5, align 4
  %36 = add nsw i32 %35, 1
  store i32 %36, i32* %5, align 4
  br label %24

37:                                               ; preds = %24
  br label %38

38:                                               ; preds = %37
  %39 = load i32, i32* %4, align 4
  %40 = add nsw i32 %39, 1
  store i32 %40, i32* %4, align 4
  br label %20

41:                                               ; preds = %20
  store i32 0, i32* %10, align 4
  br label %42

42:                                               ; preds = %59, %41
  %43 = load i32, i32* %10, align 4
  %44 = add nsw i32 %43, 1
  store i32 %44, i32* %10, align 4
  %45 = call i32 @getchar()
  store i32 %45, i32* %8, align 4
  %46 = load i32, i32* %10, align 4
  %47 = getelementptr inbounds [2 x [30 x i32]], [2 x [30 x i32]]* %7, i64 0, i64 0
  %48 = load i32, i32* %8, align 4
  %49 = sub nsw i32 %48, 97
  %50 = sext i32 %49 to i64
  %51 = getelementptr inbounds [30 x i32], [30 x i32]* %47, i64 0, i64 %50
  store i32 %46, i32* %51, align 4
  %52 = getelementptr inbounds [2 x [30 x i32]], [2 x [30 x i32]]* %7, i64 0, i64 1
  %53 = load i32, i32* %8, align 4
  %54 = sub nsw i32 %53, 97
  %55 = sext i32 %54 to i64
  %56 = getelementptr inbounds [30 x i32], [30 x i32]* %52, i64 0, i64 %55
  %57 = load i32, i32* %56, align 4
  %58 = add nsw i32 %57, 1
  store i32 %58, i32* %56, align 4
  br label %59

59:                                               ; preds = %42
  %60 = load i32, i32* %8, align 4
  %61 = call i32 @islower(i32 %60) #3
  %62 = icmp ne i32 %61, 0
  br i1 %62, label %42, label %63

63:                                               ; preds = %59
  store i32 1000111, i32* %11, align 4
  store i32 -1, i32* %12, align 4
  store i32 0, i32* %10, align 4
  br label %64

64:                                               ; preds = %90, %63
  %65 = load i32, i32* %10, align 4
  %66 = icmp sle i32 %65, 25
  br i1 %66, label %67, label %93

67:                                               ; preds = %64
  %68 = getelementptr inbounds [2 x [30 x i32]], [2 x [30 x i32]]* %7, i64 0, i64 1
  %69 = load i32, i32* %10, align 4
  %70 = sext i32 %69 to i64
  %71 = getelementptr inbounds [30 x i32], [30 x i32]* %68, i64 0, i64 %70
  %72 = load i32, i32* %71, align 4
  %73 = icmp eq i32 %72, 1
  br i1 %73, label %74, label %89

74:                                               ; preds = %67
  %75 = getelementptr inbounds [2 x [30 x i32]], [2 x [30 x i32]]* %7, i64 0, i64 0
  %76 = load i32, i32* %10, align 4
  %77 = sext i32 %76 to i64
  %78 = getelementptr inbounds [30 x i32], [30 x i32]* %75, i64 0, i64 %77
  %79 = load i32, i32* %78, align 4
  %80 = load i32, i32* %11, align 4
  %81 = icmp slt i32 %79, %80
  br i1 %81, label %82, label %89

82:                                               ; preds = %74
  %83 = getelementptr inbounds [2 x [30 x i32]], [2 x [30 x i32]]* %7, i64 0, i64 1
  %84 = load i32, i32* %10, align 4
  %85 = sext i32 %84 to i64
  %86 = getelementptr inbounds [30 x i32], [30 x i32]* %83, i64 0, i64 %85
  %87 = load i32, i32* %86, align 4
  store i32 %87, i32* %11, align 4
  %88 = load i32, i32* %10, align 4
  store i32 %88, i32* %12, align 4
  br label %89

89:                                               ; preds = %82, %74, %67
  br label %90

90:                                               ; preds = %89
  %91 = load i32, i32* %10, align 4
  %92 = add nsw i32 %91, 1
  store i32 %92, i32* %10, align 4
  br label %64

93:                                               ; preds = %64
  %94 = load i32, i32* %12, align 4
  %95 = icmp ne i32 %94, -1
  br i1 %95, label %96, label %100

96:                                               ; preds = %93
  %97 = load i32, i32* %12, align 4
  %98 = add nsw i32 %97, 97
  %99 = call i32 (i8*, ...) @printf(i8* getelementptr inbounds ([4 x i8], [4 x i8]* @.str.1, i64 0, i64 0), i32 %98)
  br label %102

100:                                              ; preds = %93
  %101 = call i32 (i8*, ...) @printf(i8* getelementptr inbounds ([4 x i8], [4 x i8]* @.str.2, i64 0, i64 0))
  br label %102

102:                                              ; preds = %100, %96
  br label %103

103:                                              ; preds = %102
  %104 = load i32, i32* %2, align 4
  %105 = add nsw i32 %104, 1
  store i32 %105, i32* %2, align 4
  br label %15

106:                                              ; preds = %15
  %107 = load i32, i32* %1, align 4
  ret i32 %107
}

declare dso_local i32 @__isoc99_scanf(i8*, ...) #1

declare dso_local i32 @getchar() #1

; Function Attrs: nounwind readonly
declare dso_local i32 @islower(i32) #2

declare dso_local i32 @printf(i8*, ...) #1


!llvm.module.flags = !{!0}
!llvm.ident = !{!1}

!0 = !{i32 1, !"wchar_size", i32 4}
!1 = !{!"clang version 10.0.0-4ubuntu1 "}
